target datalayout = "e-m:e-p270:32:32-p271:32:32-p272:64:64-i64:64-i128:128-f80:128-n8:16:32:64-S128"
target triple = "x86_64-pc-linux-gnu"

%struct.CRYPTO_REF_COUNT = type { i32 }
%struct.ssl_token_store_st = type { ptr, %struct.CRYPTO_REF_COUNT, ptr }

@.str = private unnamed_addr constant [32 x i8] c"../openssl/ssl/quic/quic_impl.c\00", align 1

; Function Attrs: inlinehint nounwind uwtable
define internal void @lh_QUIC_TOKEN_free(ptr noundef %0) #3 {
  %2 = alloca ptr, align 8
  store ptr %0, ptr %2, align 8, !tbaa !284
  %3 = load ptr, ptr %2, align 8, !tbaa !284
  call void @OPENSSL_LH_free(ptr noundef %3)
  ret void
}

; Function Attrs: inlinehint nounwind uwtable
define internal void @lh_QUIC_TOKEN_doall(ptr noundef %0, ptr noundef %1) #3 {
  %3 = alloca ptr, align 8
  %4 = alloca ptr, align 8
  store ptr %0, ptr %3, align 8, !tbaa !284
  store ptr %1, ptr %4, align 8, !tbaa !167
  %5 = load ptr, ptr %3, align 8, !tbaa !284
  %6 = load ptr, ptr %4, align 8, !tbaa !167
  call void @OPENSSL_LH_doall(ptr noundef %5, ptr noundef %6)
  ret void
}

; Function Attrs: inlinehint nounwind uwtable
define internal i32 @CRYPTO_DOWN_REF(ptr noundef %0, ptr noundef %1) #3 {
  %3 = alloca ptr, align 8
  %4 = alloca ptr, align 8
  %5 = alloca i32, align 4
  %6 = alloca i32, align 4
  store ptr %0, ptr %3, align 8, !tbaa !167
  store ptr %1, ptr %4, align 8, !tbaa !180
  %7 = load ptr, ptr %3, align 8, !tbaa !167
  %8 = getelementptr inbounds nuw %struct.CRYPTO_REF_COUNT, ptr %7, i32 0, i32 0
  store i32 1, ptr %5, align 4, !tbaa !122
  %9 = load i32, ptr %5, align 4
  %10 = atomicrmw sub ptr %8, i32 %9 release, align 4
  store i32 %10, ptr %6, align 4
  %11 = load i32, ptr %6, align 4, !tbaa !122
  %12 = sub nsw i32 %11, 1
  %13 = load ptr, ptr %4, align 8, !tbaa !180
  store i32 %12, ptr %13, align 4, !tbaa !122
  %14 = load ptr, ptr %4, align 8, !tbaa !180
  %15 = load i32, ptr %14, align 4, !tbaa !122
  %16 = icmp eq i32 %15, 0
  br i1 %16, label %17, label %18

17:                                               ; preds = %2
  fence acquire
  br label %18

18:                                               ; preds = %17, %2
  ret i32 1
}

; Function Attrs: nounwind uwtable
define void @ossl_quic_free_token_store(ptr noundef %0) #0 {
  %2 = alloca ptr, align 8
  %3 = alloca i32, align 4
  %4 = alloca i32, align 4
  store ptr %0, ptr %2, align 8, !tbaa !272
  call void @llvm.lifetime.start.p0(i64 4, ptr %3) #10
  %5 = load ptr, ptr %2, align 8, !tbaa !272
  %6 = icmp eq ptr %5, null
  br i1 %6, label %7, label %8

7:                                                ; preds = %1
  store i32 1, ptr %4, align 4
  br label %28

8:                                                ; preds = %1
  %9 = load ptr, ptr %2, align 8, !tbaa !272
  %10 = getelementptr inbounds nuw %struct.ssl_token_store_st, ptr %9, i32 0, i32 1
  %11 = call i32 @CRYPTO_DOWN_REF(ptr noundef %10, ptr noundef %3)
  %12 = icmp ne i32 %11, 0
  br i1 %12, label %14, label %13

13:                                               ; preds = %8
  store i32 1, ptr %4, align 4
  br label %28

14:                                               ; preds = %8
  %15 = load i32, ptr %3, align 4, !tbaa !122
  %16 = icmp sgt i32 %15, 0
  br i1 %16, label %17, label %18

17:                                               ; preds = %14
  store i32 1, ptr %4, align 4
  br label %28

18:                                               ; preds = %14
  %19 = load ptr, ptr %2, align 8, !tbaa !272
  %20 = getelementptr inbounds nuw %struct.ssl_token_store_st, ptr %19, i32 0, i32 2
  call void @ossl_crypto_mutex_free(ptr noundef %20)
  %21 = load ptr, ptr %2, align 8, !tbaa !272
  %22 = getelementptr inbounds nuw %struct.ssl_token_store_st, ptr %21, i32 0, i32 0
  %23 = load ptr, ptr %22, align 8, !tbaa !273
  call void @lh_QUIC_TOKEN_doall(ptr noundef %23, ptr noundef @free_this_token)
  %24 = load ptr, ptr %2, align 8, !tbaa !272
  %25 = getelementptr inbounds nuw %struct.ssl_token_store_st, ptr %24, i32 0, i32 0
  %26 = load ptr, ptr %25, align 8, !tbaa !273
  call void @lh_QUIC_TOKEN_free(ptr noundef %26)
  %27 = load ptr, ptr %2, align 8, !tbaa !272
  call void @CRYPTO_free(ptr noundef %27, ptr noundef @.str, i32 noundef 4715)
  store i32 1, ptr %4, align 4
  br label %28

28:                                               ; preds = %18, %17, %13, %7
  call void @llvm.lifetime.end.p0(i64 4, ptr %3) #10
  ret void
}